target datalayout = "e-m:e-p270:32:32-p271:32:32-p272:64:64-i64:64-i128:128-f80:128-n8:16:32:64-S128"
target triple = "x86_64-pc-linux-gnu"

%"class.cv::ParallelLoopBody" = type { ptr }
%"class.cv::Range" = type { i32, i32 }
%"class.cv::ximgproc::GuidedFilterImpl" = type <{ %"class.cv::ximgproc::GuidedFilter", i32, [4 x i8], double, double, i32, i32, i32, i32, %"class.std::vector", %"class.std::vector", %"class.std::vector", %"struct.cv::ximgproc::SymArray2D", i32, [4 x i8] }>
%"class.cv::ximgproc::GuidedFilter" = type { %"class.cv::Algorithm" }
%"class.cv::Algorithm" = type { ptr }
%"class.std::vector" = type { %"struct.std::_Vector_base" }
%"struct.std::_Vector_base" = type { %"struct.std::_Vector_base<cv::Mat, std::allocator<cv::Mat>>::_Vector_impl" }
%"struct.std::_Vector_base<cv::Mat, std::allocator<cv::Mat>>::_Vector_impl" = type { %"struct.std::_Vector_base<cv::Mat, std::allocator<cv::Mat>>::_Vector_impl_data" }
%"struct.std::_Vector_base<cv::Mat, std::allocator<cv::Mat>>::_Vector_impl_data" = type { ptr, ptr, ptr }
%"struct.cv::ximgproc::SymArray2D" = type <{ %"class.std::vector", i32, [4 x i8] }>
%"class.cv::Mat" = type { i32, i32, i32, i32, ptr, ptr, ptr, ptr, ptr, ptr, %"struct.cv::MatSize", %"struct.cv::MatStep" }
%"struct.cv::MatSize" = type { ptr }
%"struct.cv::MatStep" = type { ptr, [2 x i64] }
%"struct.cv::ximgproc::GuidedFilterImpl::MulChannelsGuideAndSrc_ParBody" = type { %"class.cv::ParallelLoopBody", ptr, ptr, ptr }
%"struct.std::_Vector_base.6" = type { %"struct.std::_Vector_base<std::vector<cv::Mat>, std::allocator<std::vector<cv::Mat>>>::_Vector_impl" }
%"struct.std::_Vector_base<std::vector<cv::Mat>, std::allocator<std::vector<cv::Mat>>>::_Vector_impl" = type { %"struct.std::_Vector_base<std::vector<cv::Mat>, std::allocator<std::vector<cv::Mat>>>::_Vector_impl_data" }
%"struct.std::_Vector_base<std::vector<cv::Mat>, std::allocator<std::vector<cv::Mat>>>::_Vector_impl_data" = type { ptr, ptr, ptr }

; Function Attrs: mustprogress nounwind uwtable
define linkonce_odr hidden noundef nonnull align 8 dereferenceable(24) ptr @_ZNSt6vectorIS_IN2cv3MatESaIS1_EESaIS3_EEixEm(ptr noundef nonnull align 8 dereferenceable(24) %0, i64 noundef %1) #6 comdat align 2 {
  %3 = alloca ptr, align 8
  %4 = alloca i64, align 8
  store ptr %0, ptr %3, align 8, !tbaa !106
  store i64 %1, ptr %4, align 8, !tbaa !45
  %5 = load ptr, ptr %3, align 8
  %6 = getelementptr inbounds nuw %"struct.std::_Vector_base.6", ptr %5, i32 0, i32 0
  %7 = getelementptr inbounds nuw %"struct.std::_Vector_base<std::vector<cv::Mat>, std::allocator<std::vector<cv::Mat>>>::_Vector_impl_data", ptr %6, i32 0, i32 0
  %8 = load ptr, ptr %7, align 8, !tbaa !107
  %9 = load i64, ptr %4, align 8, !tbaa !45
  %10 = getelementptr inbounds nuw %"class.std::vector", ptr %8, i64 %9
  ret ptr %10
}

; Function Attrs: inlinehint mustprogress nounwind uwtable
define linkonce_odr hidden noundef ptr @_ZN2cv3Mat3ptrIfEEPT_i(ptr noundef nonnull align 8 dereferenceable(96) %0, i32 noundef %1) #7 comdat align 2 {
  %3 = alloca ptr, align 8
  %4 = alloca i32, align 4
  store ptr %0, ptr %3, align 8, !tbaa !48
  store i32 %1, ptr %4, align 4, !tbaa !15
  %5 = load ptr, ptr %3, align 8
  %6 = getelementptr inbounds nuw %"class.cv::Mat", ptr %5, i32 0, i32 4
  %7 = load ptr, ptr %6, align 8, !tbaa !49
  %8 = getelementptr inbounds nuw %"class.cv::Mat", ptr %5, i32 0, i32 11
  %9 = getelementptr inbounds nuw %"struct.cv::MatStep", ptr %8, i32 0, i32 0
  %10 = load ptr, ptr %9, align 8, !tbaa !57
  %11 = getelementptr inbounds i64, ptr %10, i64 0
  %12 = load i64, ptr %11, align 8, !tbaa !45
  %13 = load i32, ptr %4, align 4, !tbaa !15
  %14 = sext i32 %13 to i64
  %15 = mul i64 %12, %14
  %16 = getelementptr inbounds nuw i8, ptr %7, i64 %15
  ret ptr %16
}

; Function Attrs: mustprogress nounwind uwtable
define linkonce_odr hidden noundef nonnull align 8 dereferenceable(96) ptr @_ZNSt6vectorIN2cv3MatESaIS1_EEixEm(ptr noundef nonnull align 8 dereferenceable(24) %0, i64 noundef %1) #6 comdat align 2 {
  %3 = alloca ptr, align 8
  %4 = alloca i64, align 8
  store ptr %0, ptr %3, align 8, !tbaa !43
  store i64 %1, ptr %4, align 8, !tbaa !45
  %5 = load ptr, ptr %3, align 8
  %6 = getelementptr inbounds nuw %"struct.std::_Vector_base", ptr %5, i32 0, i32 0
  %7 = getelementptr inbounds nuw %"struct.std::_Vector_base<cv::Mat, std::allocator<cv::Mat>>::_Vector_impl_data", ptr %6, i32 0, i32 0
  %8 = load ptr, ptr %7, align 8, !tbaa !47
  %9 = load i64, ptr %4, align 8, !tbaa !45
  %10 = getelementptr inbounds nuw %"class.cv::Mat", ptr %8, i64 %9
  ret ptr %10
}

; Function Attrs: mustprogress nounwind uwtable
define linkonce_odr hidden noundef i64 @_ZNKSt6vectorIN2cv3MatESaIS1_EE4sizeEv(ptr noundef nonnull align 8 dereferenceable(24) %0) #6 comdat align 2 {
  %2 = alloca ptr, align 8
  store ptr %0, ptr %2, align 8, !tbaa !43
  %3 = load ptr, ptr %2, align 8
  %4 = getelementptr inbounds nuw %"struct.std::_Vector_base", ptr %3, i32 0, i32 0
  %5 = getelementptr inbounds nuw %"struct.std::_Vector_base<cv::Mat, std::allocator<cv::Mat>>::_Vector_impl_data", ptr %4, i32 0, i32 1
  %6 = load ptr, ptr %5, align 8, !tbaa !105
  %7 = getelementptr inbounds nuw %"struct.std::_Vector_base", ptr %3, i32 0, i32 0
  %8 = getelementptr inbounds nuw %"struct.std::_Vector_base<cv::Mat, std::allocator<cv::Mat>>::_Vector_impl_data", ptr %7, i32 0, i32 0
  %9 = load ptr, ptr %8, align 8, !tbaa !47
  %10 = ptrtoint ptr %6 to i64
  %11 = ptrtoint ptr %9 to i64
  %12 = sub i64 %10, %11
  %13 = sdiv exact i64 %12, 96
  ret i64 %13
}

; Function Attrs: mustprogress uwtable
define hidden void @_ZNK2cv8ximgproc16GuidedFilterImpl30MulChannelsGuideAndSrc_ParBodyclERKNS_5RangeE(ptr noundef nonnull align 8 dereferenceable(32) %0, ptr noundef nonnull align 4 dereferenceable(8) %1) unnamed_addr #4 align 2 {
  %3 = alloca ptr, align 8
  %4 = alloca ptr, align 8
  %5 = alloca i32, align 4
  %6 = alloca i32, align 4
  %7 = alloca i32, align 4
  %8 = alloca i32, align 4
  %9 = alloca i32, align 4
  %10 = alloca i32, align 4
  %11 = alloca i32, align 4
  %12 = alloca ptr, align 8
  %13 = alloca i32, align 4
  %14 = alloca ptr, align 8
  %15 = alloca ptr, align 8
  store ptr %0, ptr %3, align 8, !tbaa !95
  store ptr %1, ptr %4, align 8, !tbaa !8
  %16 = load ptr, ptr %3, align 8
  call void @llvm.lifetime.start.p0(i64 4, ptr %5) #3
  %17 = getelementptr inbounds nuw %"struct.cv::ximgproc::GuidedFilterImpl::MulChannelsGuideAndSrc_ParBody", ptr %16, i32 0, i32 3
  %18 = load ptr, ptr %17, align 8, !tbaa !97
  %19 = call noundef i64 @_ZNKSt6vectorIN2cv3MatESaIS1_EE4sizeEv(ptr noundef nonnull align 8 dereferenceable(24) %18) #3
  %20 = trunc i64 %19 to i32
  store i32 %20, ptr %5, align 4, !tbaa !15
  call void @llvm.lifetime.start.p0(i64 4, ptr %6) #3
  %21 = load ptr, ptr %4, align 8, !tbaa !8
  %22 = getelementptr inbounds nuw %"class.cv::Range", ptr %21, i32 0, i32 0
  %23 = load i32, ptr %22, align 4, !tbaa !17
  store i32 %23, ptr %6, align 4, !tbaa !15
  br label %24

24:                                               ; preds = %113, %2
  %25 = load i32, ptr %6, align 4, !tbaa !15
  %26 = load ptr, ptr %4, align 8, !tbaa !8
  %27 = getelementptr inbounds nuw %"class.cv::Range", ptr %26, i32 0, i32 1
  %28 = load i32, ptr %27, align 4, !tbaa !19
  %29 = icmp slt i32 %25, %28
  br i1 %29, label %31, label %30

30:                                               ; preds = %24
  store i32 2, ptr %7, align 4
  call void @llvm.lifetime.end.p0(i64 4, ptr %6) #3
  br label %116

31:                                               ; preds = %24
  call void @llvm.lifetime.start.p0(i64 4, ptr %8) #3
  store i32 0, ptr %8, align 4, !tbaa !15
  br label %32

32:                                               ; preds = %109, %31
  %33 = load i32, ptr %8, align 4, !tbaa !15
  %34 = load i32, ptr %5, align 4, !tbaa !15
  %35 = icmp slt i32 %33, %34
  br i1 %35, label %37, label %36

36:                                               ; preds = %32
  store i32 5, ptr %7, align 4
  call void @llvm.lifetime.end.p0(i64 4, ptr %8) #3
  br label %112

37:                                               ; preds = %32
  call void @llvm.lifetime.start.p0(i64 4, ptr %9) #3
  %38 = load i32, ptr %8, align 4, !tbaa !15
  %39 = srem i32 %38, 2
  %40 = mul nsw i32 %39, 2
  %41 = sub nsw i32 %40, 1
  store i32 %41, ptr %9, align 4, !tbaa !15
  call void @llvm.lifetime.start.p0(i64 4, ptr %10) #3
  %42 = load i32, ptr %8, align 4, !tbaa !15
  %43 = srem i32 %42, 2
  %44 = icmp ne i32 %43, 0
  br i1 %44, label %45, label %46

45:                                               ; preds = %37
  br label %52

46:                                               ; preds = %37
  %47 = getelementptr inbounds nuw %"struct.cv::ximgproc::GuidedFilterImpl::MulChannelsGuideAndSrc_ParBody", ptr %16, i32 0, i32 1
  %48 = load ptr, ptr %47, align 8, !tbaa !100
  %49 = getelementptr inbounds nuw %"class.cv::ximgproc::GuidedFilterImpl", ptr %48, i32 0, i32 13
  %50 = load i32, ptr %49, align 8, !tbaa !42
  %51 = sub nsw i32 %50, 1
  br label %52

52:                                               ; preds = %46, %45
  %53 = phi i32 [ 0, %45 ], [ %51, %46 ]
  store i32 %53, ptr %10, align 4, !tbaa !15
  call void @llvm.lifetime.start.p0(i64 4, ptr %11) #3
  %54 = load i32, ptr %8, align 4, !tbaa !15
  %55 = srem i32 %54, 2
  %56 = icmp ne i32 %55, 0
  br i1 %56, label %57, label %62

57:                                               ; preds = %52
  %58 = getelementptr inbounds nuw %"struct.cv::ximgproc::GuidedFilterImpl::MulChannelsGuideAndSrc_ParBody", ptr %16, i32 0, i32 1
  %59 = load ptr, ptr %58, align 8, !tbaa !100
  %60 = getelementptr inbounds nuw %"class.cv::ximgproc::GuidedFilterImpl", ptr %59, i32 0, i32 13
  %61 = load i32, ptr %60, align 8, !tbaa !42
  br label %63

62:                                               ; preds = %52
  br label %63

63:                                               ; preds = %62, %57
  %64 = phi i32 [ %61, %57 ], [ -1, %62 ]
  store i32 %64, ptr %11, align 4, !tbaa !15
  call void @llvm.lifetime.start.p0(i64 8, ptr %12) #3
  %65 = getelementptr inbounds nuw %"struct.cv::ximgproc::GuidedFilterImpl::MulChannelsGuideAndSrc_ParBody", ptr %16, i32 0, i32 3
  %66 = load ptr, ptr %65, align 8, !tbaa !97
  %67 = load i32, ptr %8, align 4, !tbaa !15
  %68 = sext i32 %67 to i64
  %69 = call noundef nonnull align 8 dereferenceable(96) ptr @_ZNSt6vectorIN2cv3MatESaIS1_EEixEm(ptr noundef nonnull align 8 dereferenceable(24) %66, i64 noundef %68) #3
  %70 = load i32, ptr %6, align 4, !tbaa !15
  %71 = call noundef ptr @_ZN2cv3Mat3ptrIfEEPT_i(ptr noundef nonnull align 8 dereferenceable(96) %69, i32 noundef %70)
  store ptr %71, ptr %12, align 8, !tbaa !21
  call void @llvm.lifetime.start.p0(i64 4, ptr %13) #3
  %72 = load i32, ptr %10, align 4, !tbaa !15
  store i32 %72, ptr %13, align 4, !tbaa !15
  br label %73

73:                                               ; preds = %104, %63
  %74 = load i32, ptr %13, align 4, !tbaa !15
  %75 = load i32, ptr %11, align 4, !tbaa !15
  %76 = icmp ne i32 %74, %75
  br i1 %76, label %78, label %77

77:                                               ; preds = %73
  store i32 8, ptr %7, align 4
  call void @llvm.lifetime.end.p0(i64 4, ptr %13) #3
  br label %108

78:                                               ; preds = %73
  call void @llvm.lifetime.start.p0(i64 8, ptr %14) #3
  %79 = getelementptr inbounds nuw %"struct.cv::ximgproc::GuidedFilterImpl::MulChannelsGuideAndSrc_ParBody", ptr %16, i32 0, i32 1
  %80 = load ptr, ptr %79, align 8, !tbaa !100
  %81 = getelementptr inbounds nuw %"class.cv::ximgproc::GuidedFilterImpl", ptr %80, i32 0, i32 9
  %82 = load i32, ptr %13, align 4, !tbaa !15
  %83 = sext i32 %82 to i64
  %84 = call noundef nonnull align 8 dereferenceable(96) ptr @_ZNSt6vectorIN2cv3MatESaIS1_EEixEm(ptr noundef nonnull align 8 dereferenceable(24) %81, i64 noundef %83) #3
  %85 = load i32, ptr %6, align 4, !tbaa !15
  %86 = call noundef ptr @_ZN2cv3Mat3ptrIfEEPT_i(ptr noundef nonnull align 8 dereferenceable(96) %84, i32 noundef %85)
  store ptr %86, ptr %14, align 8, !tbaa !21
  call void @llvm.lifetime.start.p0(i64 8, ptr %15) #3
  %87 = getelementptr inbounds nuw %"struct.cv::ximgproc::GuidedFilterImpl::MulChannelsGuideAndSrc_ParBody", ptr %16, i32 0, i32 2
  %88 = load ptr, ptr %87, align 8, !tbaa !101
  %89 = load i32, ptr %8, align 4, !tbaa !15
  %90 = sext i32 %89 to i64
  %91 = call noundef nonnull align 8 dereferenceable(24) ptr @_ZNSt6vectorIS_IN2cv3MatESaIS1_EESaIS3_EEixEm(ptr noundef nonnull align 8 dereferenceable(24) %88, i64 noundef %90) #3
  %92 = load i32, ptr %13, align 4, !tbaa !15
  %93 = sext i32 %92 to i64
  %94 = call noundef nonnull align 8 dereferenceable(96) ptr @_ZNSt6vectorIN2cv3MatESaIS1_EEixEm(ptr noundef nonnull align 8 dereferenceable(24) %91, i64 noundef %93) #3
  %95 = load i32, ptr %6, align 4, !tbaa !15
  %96 = call noundef ptr @_ZN2cv3Mat3ptrIfEEPT_i(ptr noundef nonnull align 8 dereferenceable(96) %94, i32 noundef %95)
  store ptr %96, ptr %15, align 8, !tbaa !21
  %97 = load ptr, ptr %15, align 8, !tbaa !21
  %98 = load ptr, ptr %12, align 8, !tbaa !21
  %99 = load ptr, ptr %14, align 8, !tbaa !21
  %100 = getelementptr inbounds nuw %"struct.cv::ximgproc::GuidedFilterImpl::MulChannelsGuideAndSrc_ParBody", ptr %16, i32 0, i32 1
  %101 = load ptr, ptr %100, align 8, !tbaa !100
  %102 = getelementptr inbounds nuw %"class.cv::ximgproc::GuidedFilterImpl", ptr %101, i32 0, i32 6
  %103 = load i32, ptr %102, align 4, !tbaa !23
  call void @_ZN2cv8ximgproc10intrinsics3mulEPfS2_S2_i(ptr noundef %97, ptr noundef %98, ptr noundef %99, i32 noundef %103)
  call void @llvm.lifetime.end.p0(i64 8, ptr %15) #3
  call void @llvm.lifetime.end.p0(i64 8, ptr %14) #3
  br label %104

104:                                              ; preds = %78
  %105 = load i32, ptr %9, align 4, !tbaa !15
  %106 = load i32, ptr %13, align 4, !tbaa !15
  %107 = add nsw i32 %106, %105
  store i32 %107, ptr %13, align 4, !tbaa !15
  br label %73, !llvm.loop !102

108:                                              ; preds = %77
  call void @llvm.lifetime.end.p0(i64 8, ptr %12) #3
  call void @llvm.lifetime.end.p0(i64 4, ptr %11) #3
  call void @llvm.lifetime.end.p0(i64 4, ptr %10) #3
  call void @llvm.lifetime.end.p0(i64 4, ptr %9) #3
  br label %109

109:                                              ; preds = %108
  %110 = load i32, ptr %8, align 4, !tbaa !15
  %111 = add nsw i32 %110, 1
  store i32 %111, ptr %8, align 4, !tbaa !15
  br label %32, !llvm.loop !103

112:                                              ; preds = %36
  br label %113

113:                                              ; preds = %112
  %114 = load i32, ptr %6, align 4, !tbaa !15
  %115 = add nsw i32 %114, 1
  store i32 %115, ptr %6, align 4, !tbaa !15
  br label %24, !llvm.loop !104

116:                                              ; preds = %30
  call void @llvm.lifetime.end.p0(i64 4, ptr %5) #3
  ret void
}