; Function Attrs: mustprogress uwtable
define hidden void @_ZNK2cv8ximgproc16GuidedFilterImpl30MulChannelsGuideAndSrc_ParBodyclERKNS_5RangeE(ptr noundef nonnull readonly align 8 captures(none) dereferenceable(32) %0, ptr noundef nonnull readonly align 4 captures(none) dereferenceable(8) %1) unnamed_addr #3 align 2 {
  %3 = getelementptr inbounds nuw i8, ptr %0, i64 24
  %4 = load ptr, ptr %3, align 8, !tbaa !74
  %5 = getelementptr inbounds nuw i8, ptr %4, i64 8
  %6 = load ptr, ptr %5, align 8, !tbaa !56
  %7 = load ptr, ptr %4, align 8, !tbaa !29
  %8 = ptrtoint ptr %6 to i64
  %9 = ptrtoint ptr %7 to i64
  %10 = sub i64 %8, %9
  %11 = sdiv exact i64 %10, 96
  %12 = load i32, ptr %1, align 4, !tbaa !19
  %13 = getelementptr inbounds nuw i8, ptr %1, i64 4
  %14 = load i32, ptr %13, align 4, !tbaa !21
  %15 = icmp slt i32 %12, %14
  br i1 %15, label %.preheader.lr.ph, label %._crit_edge34

.preheader.lr.ph:                                 ; preds = %2
  %16 = trunc i64 %11 to i32
  %17 = icmp sgt i32 %16, 0
  %18 = getelementptr inbounds nuw i8, ptr %0, i64 8
  %19 = getelementptr inbounds nuw i8, ptr %0, i64 16
  br i1 %17, label %.preheader.us.preheader, label %._crit_edge34

.preheader.us.preheader:                          ; preds = %.preheader.lr.ph
  %20 = sext i32 %12 to i64
  %wide.trip.count = and i64 %11, 2147483647
  br label %.preheader.us

.preheader.us:                                    ; preds = %.preheader.us.preheader, %._crit_edge32.us
  %indvars.iv = phi i64 [ %20, %.preheader.us.preheader ], [ %indvars.iv.next, %._crit_edge32.us ]
  br label %21

21:                                               ; preds = %.preheader.us, %._crit_edge.us
  %indvars.iv39 = phi i64 [ 0, %.preheader.us ], [ %indvars.iv.next40, %._crit_edge.us ]
  %.02630.us = phi i32 [ 0, %.preheader.us ], [ %70, %._crit_edge.us ]
  %22 = shl nuw i32 %.02630.us, 1
  %23 = and i32 %22, 2
  %24 = zext nneg i32 %23 to i64
  %25 = add nsw i64 %24, -1
  %26 = and i64 %indvars.iv39, 1
  %.not.us = icmp eq i64 %26, 0
  %27 = load ptr, ptr %18, align 8, !tbaa !78
  %28 = getelementptr inbounds nuw i8, ptr %27, i64 152
  %29 = load i32, ptr %28, align 8, !tbaa !23
  %30 = add nsw i32 %29, -1
  %31 = select i1 %.not.us, i32 %30, i32 0
  %32 = select i1 %.not.us, i32 -1, i32 %29
  %33 = load ptr, ptr %3, align 8, !tbaa !74
  %34 = load ptr, ptr %33, align 8, !tbaa !29
  %35 = getelementptr inbounds nuw %"class.cv::Mat", ptr %34, i64 %indvars.iv39
  %36 = getelementptr inbounds nuw i8, ptr %35, i64 16
  %37 = load ptr, ptr %36, align 8, !tbaa !30
  %38 = getelementptr inbounds nuw i8, ptr %35, i64 72
  %39 = load ptr, ptr %38, align 8, !tbaa !39
  %40 = load i64, ptr %39, align 8, !tbaa !40
  %41 = mul i64 %40, %indvars.iv
  %42 = getelementptr inbounds nuw i8, ptr %37, i64 %41
  %.not2728.us = icmp eq i32 %31, %32
  br i1 %.not2728.us, label %._crit_edge.us, label %.lr.ph.us.preheader

.lr.ph.us.preheader:                              ; preds = %21
  %43 = sext i32 %31 to i64
  br label %.lr.ph.us

.lr.ph.us:                                        ; preds = %.lr.ph.us.preheader, %.lr.ph.us
  %indvars.iv36 = phi i64 [ %43, %.lr.ph.us.preheader ], [ %indvars.iv.next37, %.lr.ph.us ]
  %44 = load ptr, ptr %18, align 8, !tbaa !78
  %45 = getelementptr inbounds nuw i8, ptr %44, i64 48
  %46 = load ptr, ptr %45, align 8, !tbaa !29
  %47 = getelementptr inbounds nuw %"class.cv::Mat", ptr %46, i64 %indvars.iv36
  %48 = getelementptr inbounds nuw i8, ptr %47, i64 16
  %49 = load ptr, ptr %48, align 8, !tbaa !30
  %50 = getelementptr inbounds nuw i8, ptr %47, i64 72
  %51 = load ptr, ptr %50, align 8, !tbaa !39
  %52 = load i64, ptr %51, align 8, !tbaa !40
  %53 = mul i64 %52, %indvars.iv
  %54 = getelementptr inbounds nuw i8, ptr %49, i64 %53
  %55 = load ptr, ptr %19, align 8, !tbaa !79
  %56 = load ptr, ptr %55, align 8, !tbaa !80
  %57 = getelementptr inbounds nuw %"class.std::vector", ptr %56, i64 %indvars.iv39
  %58 = load ptr, ptr %57, align 8, !tbaa !29
  %59 = getelementptr inbounds nuw %"class.cv::Mat", ptr %58, i64 %indvars.iv36
  %60 = getelementptr inbounds nuw i8, ptr %59, i64 16
  %61 = load ptr, ptr %60, align 8, !tbaa !30
  %62 = getelementptr inbounds nuw i8, ptr %59, i64 72
  %63 = load ptr, ptr %62, align 8, !tbaa !39
  %64 = load i64, ptr %63, align 8, !tbaa !40
  %65 = mul i64 %64, %indvars.iv
  %66 = getelementptr inbounds nuw i8, ptr %61, i64 %65
  %67 = getelementptr inbounds nuw i8, ptr %44, i64 36
  %68 = load i32, ptr %67, align 4, !tbaa !42
  tail call void @_ZN2cv8ximgproc10intrinsics3mulEPfS2_S2_i(ptr noundef %66, ptr noundef %42, ptr noundef %54, i32 noundef %68)
  %indvars.iv.next37 = add nsw i64 %indvars.iv36, %25
  %69 = trunc nsw i64 %indvars.iv.next37 to i32
  %.not27.us = icmp eq i32 %32, %69
  br i1 %.not27.us, label %._crit_edge.us, label %.lr.ph.us, !llvm.loop !82

._crit_edge.us:                                   ; preds = %.lr.ph.us, %21
  %indvars.iv.next40 = add nuw nsw i64 %indvars.iv39, 1
  %70 = add nuw nsw i32 %.02630.us, 1
  %exitcond.not = icmp eq i64 %indvars.iv.next40, %wide.trip.count
  br i1 %exitcond.not, label %._crit_edge32.us, label %21, !llvm.loop !83

._crit_edge32.us:                                 ; preds = %._crit_edge.us
  %indvars.iv.next = add nsw i64 %indvars.iv, 1
  %71 = load i32, ptr %13, align 4, !tbaa !21
  %72 = sext i32 %71 to i64
  %73 = icmp slt i64 %indvars.iv.next, %72
  br i1 %73, label %.preheader.us, label %._crit_edge34, !llvm.loop !84

._crit_edge34:                                    ; preds = %._crit_edge32.us, %.preheader.lr.ph, %2
  ret void
}